; Function Attrs: nounwind uwtable
define ptr @l_Lean_ScopedEnvExtension_ScopedEntries_insert___rarg(ptr noundef %0, ptr noundef %1, ptr noundef %2) #2 {
  %4 = ptrtoint ptr %0 to i64
  %5 = and i64 %4, 1
  %.not = icmp eq i64 %5, 0
  br i1 %.not, label %6, label %lean_inc.exit20

6:                                                ; preds = %3
  %.val.i = load i32, ptr %0, align 4, !tbaa !4
  %7 = icmp sgt i32 %.val.i, 0
  br i1 %7, label %8, label %10, !prof !11

8:                                                ; preds = %6
  %9 = add nuw i32 %.val.i, 1
  store i32 %9, ptr %0, align 4, !tbaa !4
  br label %lean_inc.exit20

10:                                               ; preds = %6
  %.not.i21 = icmp eq i32 %.val.i, 0
  br i1 %.not.i21, label %lean_inc.exit20, label %11

11:                                               ; preds = %10
  tail call void @lean_inc_ref_cold(ptr noundef nonnull %0) #7
  br label %lean_inc.exit20

lean_inc.exit20:                                  ; preds = %11, %10, %8, %3
  %12 = tail call ptr @l_Lean_SMap_find_x3f___at_Lean_ScopedEnvExtension_ScopedEntries_insert___spec__1___rarg(ptr noundef %0, ptr noundef %1)
  %13 = ptrtoint ptr %12 to i64
  %14 = and i64 %13, 1
  %.not.i22 = icmp eq i64 %14, 0
  br i1 %.not.i22, label %18, label %15

15:                                               ; preds = %lean_inc.exit20
  %16 = lshr i64 %13, 1
  %17 = trunc i64 %16 to i32
  br label %lean_obj_tag.exit

18:                                               ; preds = %lean_inc.exit20
  %19 = getelementptr i8, ptr %12, i64 4
  %.val.i23 = load i32, ptr %19, align 4
  %20 = lshr i32 %.val.i23, 24
  br label %lean_obj_tag.exit

lean_obj_tag.exit:                                ; preds = %15, %18
  %.0.i = phi i32 [ %17, %15 ], [ %20, %18 ]
  %21 = icmp eq i32 %.0.i, 0
  br i1 %21, label %22, label %26

22:                                               ; preds = %lean_obj_tag.exit
  %23 = load ptr, ptr @l_Lean_ScopedEnvExtension_ScopedEntries_insert___rarg___closed__3, align 8, !tbaa !9
  %24 = tail call ptr @l_Lean_PersistentArray_push___rarg(ptr noundef %23, ptr noundef %2) #7
  %25 = tail call ptr @l_Lean_SMap_insert___at_Lean_ScopedEnvExtension_ScopedEntries_insert___spec__8___rarg(ptr noundef %0, ptr noundef %1, ptr noundef %24)
  br label %46

26:                                               ; preds = %lean_obj_tag.exit
  %27 = getelementptr inbounds nuw i8, ptr %12, i64 8
  %28 = load ptr, ptr %27, align 8, !tbaa !9
  %29 = ptrtoint ptr %28 to i64
  %30 = and i64 %29, 1
  %.not27 = icmp eq i64 %30, 0
  br i1 %.not27, label %31, label %lean_inc.exit

31:                                               ; preds = %26
  %.val.i24 = load i32, ptr %28, align 4, !tbaa !4
  %32 = icmp sgt i32 %.val.i24, 0
  br i1 %32, label %33, label %35, !prof !11

33:                                               ; preds = %31
  %34 = add nuw i32 %.val.i24, 1
  store i32 %34, ptr %28, align 4, !tbaa !4
  br label %lean_inc.exit

35:                                               ; preds = %31
  %.not.i25 = icmp eq i32 %.val.i24, 0
  br i1 %.not.i25, label %lean_inc.exit, label %36

36:                                               ; preds = %35
  tail call void @lean_inc_ref_cold(ptr noundef nonnull %28) #7
  br label %lean_inc.exit

lean_inc.exit:                                    ; preds = %36, %35, %33, %26
  br i1 %.not.i22, label %37, label %lean_dec.exit

37:                                               ; preds = %lean_inc.exit
  %38 = load i32, ptr %12, align 4, !tbaa !4
  %39 = icmp sgt i32 %38, 1
  br i1 %39, label %40, label %42, !prof !11

40:                                               ; preds = %37
  %41 = add nsw i32 %38, -1
  store i32 %41, ptr %12, align 4, !tbaa !4
  br label %lean_dec.exit

42:                                               ; preds = %37
  %.not.i = icmp eq i32 %38, 0
  br i1 %.not.i, label %lean_dec.exit, label %43

43:                                               ; preds = %42
  tail call void @lean_dec_ref_cold(ptr noundef nonnull %12) #7
  br label %lean_dec.exit

lean_dec.exit:                                    ; preds = %43, %42, %40, %lean_inc.exit
  %44 = tail call ptr @l_Lean_PersistentArray_push___rarg(ptr noundef %28, ptr noundef %2) #7
  %45 = tail call ptr @l_Lean_SMap_insert___at_Lean_ScopedEnvExtension_ScopedEntries_insert___spec__18___rarg(ptr noundef %0, ptr noundef %1, ptr noundef %44)
  br label %46

46:                                               ; preds = %lean_dec.exit, %22
  %.0 = phi ptr [ %25, %22 ], [ %45, %lean_dec.exit ]
  ret ptr %.0
}